; Function Attrs: nounwind uwtable
define internal noundef ptr @stats_arenas_i_index(ptr noundef %0, ptr readnone captures(none) %1, i64 %2, i64 noundef %3) #0 {
  %5 = tail call i32 @pthread_mutex_trylock(ptr noundef nonnull getelementptr inbounds nuw (i8, ptr @ctl_mtx, i64 72)) #14
  %.not.i = icmp eq i32 %5, 0
  br i1 %.not.i, label %7, label %6

6:                                                ; preds = %4
  tail call void @duckdb_je_malloc_mutex_lock_slow(ptr noundef nonnull @ctl_mtx) #14
  store atomic i8 1, ptr getelementptr inbounds nuw (i8, ptr @ctl_mtx, i64 64) monotonic, align 8
  br label %7

7:                                                ; preds = %6, %4
  %8 = load i64, ptr getelementptr inbounds nuw (i8, ptr @ctl_mtx, i64 56), align 8, !tbaa !16
  %9 = add i64 %8, 1
  store i64 %9, ptr getelementptr inbounds nuw (i8, ptr @ctl_mtx, i64 56), align 8, !tbaa !16
  %10 = load ptr, ptr getelementptr inbounds nuw (i8, ptr @ctl_mtx, i64 48), align 8, !tbaa !22
  %.not.i.i = icmp eq ptr %10, %0
  br i1 %.not.i.i, label %malloc_mutex_lock.exit, label %11

11:                                               ; preds = %7
  store ptr %0, ptr getelementptr inbounds nuw (i8, ptr @ctl_mtx, i64 48), align 8, !tbaa !22
  %12 = load i64, ptr getelementptr inbounds nuw (i8, ptr @ctl_mtx, i64 40), align 8, !tbaa !23
  %13 = add i64 %12, 1
  store i64 %13, ptr getelementptr inbounds nuw (i8, ptr @ctl_mtx, i64 40), align 8, !tbaa !23
  br label %malloc_mutex_lock.exit

malloc_mutex_lock.exit:                           ; preds = %7, %11
  switch i64 %3, label %15 [
    i64 4096, label %ctl_arenas_i_verify.exit
    i64 4097, label %14
  ]

14:                                               ; preds = %malloc_mutex_lock.exit
  br label %ctl_arenas_i_verify.exit

15:                                               ; preds = %malloc_mutex_lock.exit
  %16 = load ptr, ptr @ctl_arenas, align 8, !tbaa !24
  %17 = getelementptr inbounds nuw i8, ptr %16, i64 8
  %18 = load i32, ptr %17, align 8, !tbaa !39
  %19 = zext i32 %18 to i64
  %20 = icmp eq i64 %3, %19
  br i1 %20, label %ctl_arenas_i_verify.exit, label %21

21:                                               ; preds = %15
  %.not.i.i3 = icmp uge i64 %3, %19
  %22 = trunc i64 %3 to i32
  %23 = add i32 %22, 2
  %24 = icmp eq i32 %23, -1
  %or.cond.i = or i1 %24, %.not.i.i3
  br i1 %or.cond.i, label %ctl_arenas_i_verify.exit.thread, label %ctl_arenas_i_verify.exit

ctl_arenas_i_verify.exit:                         ; preds = %malloc_mutex_lock.exit, %14, %15, %21
  %.0.i5.i = phi i32 [ 0, %15 ], [ 0, %malloc_mutex_lock.exit ], [ 1, %14 ], [ %23, %21 ]
  %25 = zext i32 %.0.i5.i to i64
  %26 = load ptr, ptr @ctl_arenas, align 8, !tbaa !24
  %27 = getelementptr inbounds nuw i8, ptr %26, i64 24
  %28 = getelementptr inbounds nuw [4097 x ptr], ptr %27, i64 0, i64 %25
  %29 = load ptr, ptr %28, align 8, !tbaa !28
  %30 = getelementptr inbounds nuw i8, ptr %29, i64 4
  %31 = load i8, ptr %30, align 4, !tbaa !35, !range !45, !noundef !46
  %32 = trunc nuw i8 %31 to i1
  br i1 %32, label %33, label %ctl_arenas_i_verify.exit.thread

ctl_arenas_i_verify.exit.thread:                  ; preds = %21, %ctl_arenas_i_verify.exit
  br label %33

33:                                               ; preds = %ctl_arenas_i_verify.exit, %ctl_arenas_i_verify.exit.thread
  %34 = phi ptr [ null, %ctl_arenas_i_verify.exit.thread ], [ @super_stats_arenas_i_node, %ctl_arenas_i_verify.exit ]
  store atomic i8 0, ptr getelementptr inbounds nuw (i8, ptr @ctl_mtx, i64 64) monotonic, align 8
  %35 = tail call i32 @pthread_mutex_unlock(ptr noundef nonnull getelementptr inbounds nuw (i8, ptr @ctl_mtx, i64 72)) #14
  ret ptr %34
}